; Function Attrs: inlinehint nounwind uwtable
define internal fastcc noundef ptr @pmix_obj_new_tma() unnamed_addr #9 {
  %1 = load i64, ptr getelementptr inbounds nuw (i8, ptr @pmix_info_caddy_t_class, i64 56), align 8, !tbaa !78
  %2 = tail call noalias noundef ptr @malloc(i64 noundef %1) #17
  %3 = load i32, ptr @pmix_class_init_epoch, align 4, !tbaa !3
  %4 = load i32, ptr getelementptr inbounds nuw (i8, ptr @pmix_info_caddy_t_class, i64 32), align 8, !tbaa !32
  %.not = icmp eq i32 %3, %4
  br i1 %.not, label %6, label %5

5:                                                ; preds = %0
  tail call void @pmix_class_initialize(ptr noundef nonnull @pmix_info_caddy_t_class) #14
  br label %6

6:                                                ; preds = %5, %0
  %.not22 = icmp eq ptr %2, null
  br i1 %.not22, label %pmix_obj_run_constructors.exit, label %7

7:                                                ; preds = %6
  %8 = tail call i32 @pthread_mutex_init(ptr noundef nonnull %2, ptr noundef null) #14
  %9 = getelementptr inbounds nuw i8, ptr %2, i64 40
  store ptr @pmix_info_caddy_t_class, ptr %9, align 8, !tbaa !34
  %10 = getelementptr inbounds nuw i8, ptr %2, i64 48
  store i32 1, ptr %10, align 8, !tbaa !35
  %11 = getelementptr inbounds nuw i8, ptr %2, i64 56
  %12 = getelementptr inbounds nuw i8, ptr %2, i64 96
  tail call void @llvm.memset.p0.i64(ptr noundef nonnull align 8 dereferenceable(32) %11, i8 0, i64 32, i1 false)
  tail call void @llvm.memset.p0.i64(ptr noundef nonnull align 8 dereferenceable(24) %12, i8 0, i64 24, i1 false)
  %13 = load ptr, ptr getelementptr inbounds nuw (i8, ptr @pmix_info_caddy_t_class, i64 40), align 8, !tbaa !36
  %14 = load ptr, ptr %13, align 8, !tbaa !37
  %.not6.i = icmp eq ptr %14, null
  br i1 %.not6.i, label %pmix_obj_run_constructors.exit, label %.lr.ph.i

.lr.ph.i:                                         ; preds = %7, %.lr.ph.i
  %15 = phi ptr [ %17, %.lr.ph.i ], [ %14, %7 ]
  %.07.i = phi ptr [ %16, %.lr.ph.i ], [ %13, %7 ]
  tail call void %15(ptr noundef nonnull %2) #14
  %16 = getelementptr inbounds nuw i8, ptr %.07.i, i64 8
  %17 = load ptr, ptr %16, align 8, !tbaa !37
  %.not.i = icmp eq ptr %17, null
  br i1 %.not.i, label %pmix_obj_run_constructors.exit, label %.lr.ph.i, !llvm.loop !38

pmix_obj_run_constructors.exit:                   ; preds = %.lr.ph.i, %7, %6
  ret ptr %2
}